target datalayout = "e-m:e-p270:32:32-p271:32:32-p272:64:64-i64:64-i128:128-f80:128-n8:16:32:64-S128"
target triple = "x86_64-pc-linux-gnu"

%struct.addrinfo = type { i32, i32, i32, i32, i32, ptr, ptr, ptr }
%union.pthread_mutex_t = type { %struct.__pthread_mutex_s }
%struct.__pthread_mutex_s = type { i32, i32, i32, i32, i32, i16, i16, %struct.__pthread_internal_list }
%struct.__pthread_internal_list = type { ptr, ptr }
%union.pthread_cond_t = type { %struct.__pthread_cond_s }
%struct.__pthread_cond_s = type { %union.__atomic_wide_counter, %union.__atomic_wide_counter, [2 x i32], [2 x i32], i32, i32, [2 x i32] }
%union.__atomic_wide_counter = type { i64 }
%struct.getaddrinfo_arg = type { ptr, ptr, %struct.addrinfo, ptr, i32, i32, i32, i32, i32, %union.pthread_mutex_t, %union.pthread_cond_t }

; Function Attrs: nounwind sspstrong uwtable
define internal void @free_getaddrinfo_arg(ptr noundef %0) #0 {
  %2 = alloca ptr, align 8
  store ptr %0, ptr %2, align 8, !tbaa !87
  %3 = load ptr, ptr %2, align 8, !tbaa !87
  %4 = getelementptr inbounds nuw %struct.getaddrinfo_arg, ptr %3, i32 0, i32 10
  call void @rb_native_cond_destroy(ptr noundef %4)
  %5 = load ptr, ptr %2, align 8, !tbaa !87
  %6 = getelementptr inbounds nuw %struct.getaddrinfo_arg, ptr %5, i32 0, i32 9
  call void @rb_nativethread_lock_destroy(ptr noundef %6)
  %7 = load ptr, ptr %2, align 8, !tbaa !87
  call void @free(ptr noundef %7) #24
  ret void
}

; Function Attrs: nounwind sspstrong uwtable
define internal ptr @do_getaddrinfo(ptr noundef %0) #0 {
  %2 = alloca ptr, align 8
  %3 = alloca ptr, align 8
  %4 = alloca i32, align 4
  %5 = alloca i32, align 4
  %6 = alloca i32, align 4
  store ptr %0, ptr %2, align 8, !tbaa !26
  call void @llvm.lifetime.start.p0(i64 8, ptr %3) #24
  %7 = load ptr, ptr %2, align 8, !tbaa !26
  store ptr %7, ptr %3, align 8, !tbaa !87
  call void @llvm.lifetime.start.p0(i64 4, ptr %4) #24
  call void @llvm.lifetime.start.p0(i64 4, ptr %5) #24
  %8 = load ptr, ptr %3, align 8, !tbaa !87
  %9 = getelementptr inbounds nuw %struct.getaddrinfo_arg, ptr %8, i32 0, i32 0
  %10 = load ptr, ptr %9, align 8, !tbaa !179
  %11 = load ptr, ptr %3, align 8, !tbaa !87
  %12 = getelementptr inbounds nuw %struct.getaddrinfo_arg, ptr %11, i32 0, i32 1
  %13 = load ptr, ptr %12, align 8, !tbaa !180
  %14 = load ptr, ptr %3, align 8, !tbaa !87
  %15 = getelementptr inbounds nuw %struct.getaddrinfo_arg, ptr %14, i32 0, i32 2
  %16 = load ptr, ptr %3, align 8, !tbaa !87
  %17 = getelementptr inbounds nuw %struct.getaddrinfo_arg, ptr %16, i32 0, i32 3
  %18 = call i32 @getaddrinfo(ptr noundef %10, ptr noundef %13, ptr noundef %15, ptr noundef %17)
  store i32 %18, ptr %4, align 4, !tbaa !27
  %19 = call ptr @rb_errno_ptr()
  %20 = load i32, ptr %19, align 4, !tbaa !27
  store i32 %20, ptr %5, align 4, !tbaa !27
  %21 = load i32, ptr %4, align 4, !tbaa !27
  %22 = icmp eq i32 %21, -11
  br i1 %22, label %23, label %28

23:                                               ; preds = %1
  %24 = call ptr @rb_errno_ptr()
  %25 = load i32, ptr %24, align 4, !tbaa !27
  %26 = icmp eq i32 %25, 2
  br i1 %26, label %27, label %28

27:                                               ; preds = %23
  store i32 -2, ptr %4, align 4, !tbaa !27
  br label %28

28:                                               ; preds = %27, %23, %1
  call void @llvm.lifetime.start.p0(i64 4, ptr %6) #24
  store i32 0, ptr %6, align 4, !tbaa !27
  %29 = load ptr, ptr %3, align 8, !tbaa !87
  %30 = getelementptr inbounds nuw %struct.getaddrinfo_arg, ptr %29, i32 0, i32 9
  call void @rb_nativethread_lock_lock(ptr noundef %30)
  %31 = load i32, ptr %4, align 4, !tbaa !27
  %32 = load ptr, ptr %3, align 8, !tbaa !87
  %33 = getelementptr inbounds nuw %struct.getaddrinfo_arg, ptr %32, i32 0, i32 4
  store i32 %31, ptr %33, align 8, !tbaa !91
  %34 = load i32, ptr %5, align 4, !tbaa !27
  %35 = load ptr, ptr %3, align 8, !tbaa !87
  %36 = getelementptr inbounds nuw %struct.getaddrinfo_arg, ptr %35, i32 0, i32 5
  store i32 %34, ptr %36, align 4, !tbaa !92
  %37 = load ptr, ptr %3, align 8, !tbaa !87
  %38 = getelementptr inbounds nuw %struct.getaddrinfo_arg, ptr %37, i32 0, i32 8
  %39 = load i32, ptr %38, align 8, !tbaa !94
  %40 = icmp ne i32 %39, 0
  br i1 %40, label %41, label %51

41:                                               ; preds = %28
  %42 = load ptr, ptr %3, align 8, !tbaa !87
  %43 = getelementptr inbounds nuw %struct.getaddrinfo_arg, ptr %42, i32 0, i32 3
  %44 = load ptr, ptr %43, align 8, !tbaa !93
  %45 = icmp ne ptr %44, null
  br i1 %45, label %46, label %50

46:                                               ; preds = %41
  %47 = load ptr, ptr %3, align 8, !tbaa !87
  %48 = getelementptr inbounds nuw %struct.getaddrinfo_arg, ptr %47, i32 0, i32 3
  %49 = load ptr, ptr %48, align 8, !tbaa !93
  call void @freeaddrinfo(ptr noundef %49) #24
  br label %50

50:                                               ; preds = %46, %41
  br label %56

51:                                               ; preds = %28
  %52 = load ptr, ptr %3, align 8, !tbaa !87
  %53 = getelementptr inbounds nuw %struct.getaddrinfo_arg, ptr %52, i32 0, i32 7
  store i32 1, ptr %53, align 4, !tbaa !89
  %54 = load ptr, ptr %3, align 8, !tbaa !87
  %55 = getelementptr inbounds nuw %struct.getaddrinfo_arg, ptr %54, i32 0, i32 10
  call void @rb_native_cond_signal(ptr noundef %55)
  br label %56

56:                                               ; preds = %51, %50
  %57 = load ptr, ptr %3, align 8, !tbaa !87
  %58 = getelementptr inbounds nuw %struct.getaddrinfo_arg, ptr %57, i32 0, i32 6
  %59 = load i32, ptr %58, align 8, !tbaa !95
  %60 = add nsw i32 %59, -1
  store i32 %60, ptr %58, align 8, !tbaa !95
  %61 = icmp eq i32 %60, 0
  br i1 %61, label %62, label %63

62:                                               ; preds = %56
  store i32 1, ptr %6, align 4, !tbaa !27
  br label %63

63:                                               ; preds = %62, %56
  %64 = load ptr, ptr %3, align 8, !tbaa !87
  %65 = getelementptr inbounds nuw %struct.getaddrinfo_arg, ptr %64, i32 0, i32 9
  call void @rb_nativethread_lock_unlock(ptr noundef %65)
  %66 = load i32, ptr %6, align 4, !tbaa !27
  %67 = icmp ne i32 %66, 0
  br i1 %67, label %68, label %70

68:                                               ; preds = %63
  %69 = load ptr, ptr %3, align 8, !tbaa !87
  call void @free_getaddrinfo_arg(ptr noundef %69)
  br label %70

70:                                               ; preds = %68, %63
  call void @llvm.lifetime.end.p0(i64 4, ptr %6) #24
  call void @llvm.lifetime.end.p0(i64 4, ptr %5) #24
  call void @llvm.lifetime.end.p0(i64 4, ptr %4) #24
  call void @llvm.lifetime.end.p0(i64 8, ptr %3) #24
  ret ptr null
}