; Function Attrs: nounwind sspstrong uwtable
define internal noalias noundef ptr @do_getaddrinfo(ptr noundef %0) #0 {
  %2 = load ptr, ptr %0, align 8, !tbaa !66
  %3 = getelementptr inbounds nuw i8, ptr %0, i64 8
  %4 = load ptr, ptr %3, align 8, !tbaa !68
  %5 = getelementptr inbounds nuw i8, ptr %0, i64 16
  %6 = getelementptr inbounds nuw i8, ptr %0, i64 64
  %7 = tail call i32 @getaddrinfo(ptr noundef %2, ptr noundef %4, ptr noundef nonnull %5, ptr noundef nonnull %6) #21
  %8 = tail call ptr @rb_errno_ptr() #21
  %9 = load i32, ptr %8, align 4, !tbaa !34
  %10 = icmp eq i32 %7, -11
  br i1 %10, label %11, label %15

11:                                               ; preds = %1
  %12 = tail call ptr @rb_errno_ptr() #21
  %13 = load i32, ptr %12, align 4, !tbaa !34
  %14 = icmp eq i32 %13, 2
  %spec.select = select i1 %14, i32 -2, i32 -11
  br label %15

15:                                               ; preds = %11, %1
  %.019 = phi i32 [ %7, %1 ], [ %spec.select, %11 ]
  %16 = getelementptr inbounds nuw i8, ptr %0, i64 96
  tail call void @rb_nativethread_lock_lock(ptr noundef nonnull %16) #21
  %17 = getelementptr inbounds nuw i8, ptr %0, i64 72
  store i32 %.019, ptr %17, align 8, !tbaa !75
  %18 = getelementptr inbounds nuw i8, ptr %0, i64 76
  store i32 %9, ptr %18, align 4, !tbaa !76
  %19 = getelementptr inbounds nuw i8, ptr %0, i64 88
  %20 = load i32, ptr %19, align 8, !tbaa !73
  %.not = icmp eq i32 %20, 0
  br i1 %.not, label %24, label %21

21:                                               ; preds = %15
  %22 = load ptr, ptr %6, align 8, !tbaa !71
  %.not22 = icmp eq ptr %22, null
  br i1 %.not22, label %27, label %23

23:                                               ; preds = %21
  tail call void @freeaddrinfo(ptr noundef nonnull %22) #21
  br label %27

24:                                               ; preds = %15
  %25 = getelementptr inbounds nuw i8, ptr %0, i64 84
  store i32 1, ptr %25, align 4, !tbaa !74
  %26 = getelementptr inbounds nuw i8, ptr %0, i64 136
  tail call void @rb_native_cond_signal(ptr noundef nonnull %26) #21
  br label %27

27:                                               ; preds = %21, %23, %24
  %28 = getelementptr inbounds nuw i8, ptr %0, i64 80
  %29 = load i32, ptr %28, align 8, !tbaa !72
  %30 = add nsw i32 %29, -1
  store i32 %30, ptr %28, align 8, !tbaa !72
  %.not24 = icmp eq i32 %30, 0
  tail call void @rb_nativethread_lock_unlock(ptr noundef nonnull %16) #21
  br i1 %.not24, label %31, label %33

31:                                               ; preds = %27
  %32 = getelementptr inbounds nuw i8, ptr %0, i64 136
  tail call void @rb_native_cond_destroy(ptr noundef nonnull %32) #21
  tail call void @rb_nativethread_lock_destroy(ptr noundef nonnull %16) #21
  tail call void @free(ptr noundef nonnull %0) #21
  br label %33

33:                                               ; preds = %31, %27
  ret ptr null
}